; Function Attrs: nounwind uwtable
define dso_local void @dsa_release_in_place(ptr noundef %0) local_unnamed_addr #0 {
  %2 = getelementptr inbounds nuw i8, ptr %0, i64 6172
  %3 = tail call zeroext i1 @LWLockAcquire(ptr noundef nonnull %2, i32 noundef 0) #11
  %4 = getelementptr inbounds nuw i8, ptr %0, i64 6152
  %5 = load i32, ptr %4, align 8
  %6 = add i32 %5, -1
  store i32 %6, ptr %4, align 8
  %7 = icmp eq i32 %6, 0
  br i1 %7, label %.preheader, label %.loopexit

.preheader:                                       ; preds = %1
  %8 = getelementptr inbounds nuw i8, ptr %0, i64 6144
  %9 = getelementptr inbounds nuw i8, ptr %0, i64 60
  br label %10

10:                                               ; preds = %.preheader, %15
  %11 = phi i64 [ 0, %.preheader ], [ %17, %15 ]
  %.013 = phi i32 [ 0, %.preheader ], [ %16, %15 ]
  %12 = getelementptr inbounds [1024 x i32], ptr %9, i64 0, i64 %11
  %13 = load i32, ptr %12, align 4
  %.not12 = icmp eq i32 %13, 0
  br i1 %.not12, label %15, label %14

14:                                               ; preds = %10
  tail call void @dsm_unpin_segment(i32 noundef %13) #11
  br label %15

15:                                               ; preds = %14, %10
  %16 = add i32 %.013, 1
  %17 = sext i32 %16 to i64
  %18 = load i64, ptr %8, align 8
  %.not = icmp ult i64 %18, %17
  br i1 %.not, label %.loopexit, label %10, !llvm.loop !7

.loopexit:                                        ; preds = %15, %1
  tail call void @LWLockRelease(ptr noundef nonnull %2) #11
  ret void
}